; Function Attrs: inlinehint mustprogress optsize uwtable
define internal noundef ptr @_ZZN8nanobind6detail11func_createILb0ELb1EZNS_16cpp_function_defIZL30nanobind_init_test_ndarray_extRNS_7module_EE8Matrix4fNS_7ndarrayIJfNS_5numpyENS0_5shapeIJLl4ELl4EEEENS_8f_contigEEEES5_JEJNS_5scopeENS_4nameENS_9is_methodENS_9rv_policyEEEEvMT1_FT0_DpT2_EDpRKT3_EUlPS5_E_SB_JSQ_EJLm0EEJSC_SD_SE_SF_EEEP7_objectOSG_PFT2_DpSM_ESt16integer_sequenceImJXspT4_EEEDpRKT5_ENUlPvPST_PhSF_PNS0_12cleanup_listEE_8__invokeES15_S16_S17_SF_S19_(ptr noundef readonly captures(none) %0, ptr noundef readonly captures(none) %1, ptr noundef readonly captures(none) %2, i32 noundef %3, ptr noundef %4) #10 align 2 personality ptr @__gxx_personality_v0 {
  %6 = alloca %"struct.nanobind::detail::tuple.669", align 8
  %7 = alloca %"class.nanobind::ndarray.149", align 8
  call void @llvm.lifetime.start.p0(i64 8, ptr nonnull %6) #22
  %8 = load ptr, ptr %1, align 8, !tbaa !93
  %9 = load i8, ptr %2, align 1, !tbaa !60
  %10 = call noundef zeroext i1 @_ZN8nanobind6detail11nb_type_getEPKSt9type_infoP7_objecthPNS0_12cleanup_listEPPv(ptr noundef nonnull @_ZTIZL30nanobind_init_test_ndarray_extRN8nanobind7module_EE8Matrix4f, ptr noundef %8, i8 noundef zeroext %9, ptr noundef %4, ptr noundef nonnull align 8 dereferenceable(8) %6) #23
  br i1 %10, label %11, label %_ZZN8nanobind6detail11func_createILb0ELb1EZNS_16cpp_function_defIZL30nanobind_init_test_ndarray_extRNS_7module_EE8Matrix4fNS_7ndarrayIJfNS_5numpyENS0_5shapeIJLl4ELl4EEEENS_8f_contigEEEES5_JEJNS_5scopeENS_4nameENS_9is_methodENS_9rv_policyEEEEvMT1_FT0_DpT2_EDpRKT3_EUlPS5_E_SB_JSQ_EJLm0EEJSC_SD_SE_SF_EEEP7_objectOSG_PFT2_DpSM_ESt16integer_sequenceImJXspT4_EEEDpRKT5_ENKUlPvPST_PhSF_PNS0_12cleanup_listEE_clES15_S16_S17_SF_S19_.exit

11:                                               ; preds = %5
  call void @llvm.lifetime.start.p0(i64 56, ptr nonnull %7) #22
  %.val = load ptr, ptr %6, align 8, !tbaa !325
  %.unpack.i = load i64, ptr %0, align 8, !tbaa !328, !noalias !330
  %.elt2.i = getelementptr inbounds nuw i8, ptr %0, i64 8
  %.unpack3.i = load i64, ptr %.elt2.i, align 8, !tbaa !328, !noalias !330
  %12 = getelementptr inbounds i8, ptr %.val, i64 %.unpack3.i
  %13 = and i64 %.unpack.i, 1
  %.not.i = icmp eq i64 %13, 0
  br i1 %.not.i, label %19, label %14

14:                                               ; preds = %11
  %15 = load ptr, ptr %12, align 8, !tbaa !267, !noalias !330
  %16 = getelementptr i8, ptr %15, i64 %.unpack.i
  %17 = getelementptr i8, ptr %16, i64 -1
  %18 = load ptr, ptr %17, align 8, !noalias !330, !nosanitize !269
  br label %_ZZN8nanobind16cpp_function_defIZL30nanobind_init_test_ndarray_extRNS_7module_EE8Matrix4fNS_7ndarrayIJfNS_5numpyENS_6detail5shapeIJLl4ELl4EEEENS_8f_contigEEEES3_JEJNS_5scopeENS_4nameENS_9is_methodENS_9rv_policyEEEEvMT1_FT0_DpT2_EDpRKT3_ENKUlPS3_E_clESP_.exit

19:                                               ; preds = %11
  %20 = inttoptr i64 %.unpack.i to ptr
  br label %_ZZN8nanobind16cpp_function_defIZL30nanobind_init_test_ndarray_extRNS_7module_EE8Matrix4fNS_7ndarrayIJfNS_5numpyENS_6detail5shapeIJLl4ELl4EEEENS_8f_contigEEEES3_JEJNS_5scopeENS_4nameENS_9is_methodENS_9rv_policyEEEEvMT1_FT0_DpT2_EDpRKT3_ENKUlPS3_E_clESP_.exit

_ZZN8nanobind16cpp_function_defIZL30nanobind_init_test_ndarray_extRNS_7module_EE8Matrix4fNS_7ndarrayIJfNS_5numpyENS_6detail5shapeIJLl4ELl4EEEENS_8f_contigEEEES3_JEJNS_5scopeENS_4nameENS_9is_methodENS_9rv_policyEEEEvMT1_FT0_DpT2_EDpRKT3_ENKUlPS3_E_clESP_.exit: ; preds = %14, %19
  %21 = phi ptr [ %18, %14 ], [ %20, %19 ]
  call void %21(ptr dead_on_unwind nonnull writable sret(%"class.nanobind::ndarray.149") align 8 %7, ptr noundef nonnull align 4 dereferenceable(64) %12) #21
  %22 = load ptr, ptr %7, align 8, !tbaa !77
  %23 = call noundef ptr @_ZN8nanobind6detail14ndarray_exportEPNS0_14ndarray_handleEiNS_9rv_policyEPNS0_12cleanup_listE(ptr noundef %22, i32 noundef 1, i32 noundef %3, ptr noundef %4) #23
  %24 = load ptr, ptr %7, align 8, !tbaa !77
  call void @_ZN8nanobind6detail15ndarray_dec_refEPNS0_14ndarray_handleE(ptr noundef %24) #23
  call void @llvm.lifetime.end.p0(i64 56, ptr nonnull %7) #22
  br label %_ZZN8nanobind6detail11func_createILb0ELb1EZNS_16cpp_function_defIZL30nanobind_init_test_ndarray_extRNS_7module_EE8Matrix4fNS_7ndarrayIJfNS_5numpyENS0_5shapeIJLl4ELl4EEEENS_8f_contigEEEES5_JEJNS_5scopeENS_4nameENS_9is_methodENS_9rv_policyEEEEvMT1_FT0_DpT2_EDpRKT3_EUlPS5_E_SB_JSQ_EJLm0EEJSC_SD_SE_SF_EEEP7_objectOSG_PFT2_DpSM_ESt16integer_sequenceImJXspT4_EEEDpRKT5_ENKUlPvPST_PhSF_PNS0_12cleanup_listEE_clES15_S16_S17_SF_S19_.exit

_ZZN8nanobind6detail11func_createILb0ELb1EZNS_16cpp_function_defIZL30nanobind_init_test_ndarray_extRNS_7module_EE8Matrix4fNS_7ndarrayIJfNS_5numpyENS0_5shapeIJLl4ELl4EEEENS_8f_contigEEEES5_JEJNS_5scopeENS_4nameENS_9is_methodENS_9rv_policyEEEEvMT1_FT0_DpT2_EDpRKT3_EUlPS5_E_SB_JSQ_EJLm0EEJSC_SD_SE_SF_EEEP7_objectOSG_PFT2_DpSM_ESt16integer_sequenceImJXspT4_EEEDpRKT5_ENKUlPvPST_PhSF_PNS0_12cleanup_listEE_clES15_S16_S17_SF_S19_.exit: ; preds = %5, %_ZZN8nanobind16cpp_function_defIZL30nanobind_init_test_ndarray_extRNS_7module_EE8Matrix4fNS_7ndarrayIJfNS_5numpyENS_6detail5shapeIJLl4ELl4EEEENS_8f_contigEEEES3_JEJNS_5scopeENS_4nameENS_9is_methodENS_9rv_policyEEEEvMT1_FT0_DpT2_EDpRKT3_ENKUlPS3_E_clESP_.exit
  %.0.i = phi ptr [ %23, %_ZZN8nanobind16cpp_function_defIZL30nanobind_init_test_ndarray_extRNS_7module_EE8Matrix4fNS_7ndarrayIJfNS_5numpyENS_6detail5shapeIJLl4ELl4EEEENS_8f_contigEEEES3_JEJNS_5scopeENS_4nameENS_9is_methodENS_9rv_policyEEEEvMT1_FT0_DpT2_EDpRKT3_ENKUlPS3_E_clESP_.exit ], [ inttoptr (i64 1 to ptr), %5 ]
  call void @llvm.lifetime.end.p0(i64 8, ptr nonnull %6) #22
  ret ptr %.0.i
}